target datalayout = "e-m:e-p270:32:32-p271:32:32-p272:64:64-i64:64-i128:128-f80:128-n8:16:32:64-S128"
target triple = "x86_64-pc-linux-gnu"

%struct._fvalue_t = type { ptr, %union.anon.1 }
%union.anon.1 = type { %struct._protocol_value_t }
%struct._protocol_value_t = type { ptr, i32, ptr, i8 }

; Function Attrs: null_pointer_is_valid sspstrong uwtable
define internal i32 @boolean_cmp_order(ptr noundef %0, ptr noundef %1, ptr noundef %2) #0 {
  %4 = alloca i32, align 4
  %5 = alloca ptr, align 8
  %6 = alloca ptr, align 8
  %7 = alloca ptr, align 8
  %8 = alloca i64, align 8
  %9 = alloca i64, align 8
  %10 = alloca i32, align 4
  %11 = alloca i32, align 4
  store ptr %0, ptr %5, align 8
  store ptr %1, ptr %6, align 8
  store ptr %2, ptr %7, align 8
  call void @llvm.lifetime.start.p0(i64 8, ptr %8) #10
  call void @llvm.lifetime.start.p0(i64 8, ptr %9) #10
  call void @llvm.lifetime.start.p0(i64 4, ptr %10) #10
  %12 = load ptr, ptr %5, align 8
  %13 = getelementptr inbounds nuw %struct._fvalue_t, ptr %12, i32 0, i32 1
  %14 = load i64, ptr %13, align 8
  store i64 %14, ptr %8, align 8
  %15 = load ptr, ptr %6, align 8
  %16 = call i32 @fvalue_to_uinteger64(ptr noundef %15, ptr noundef %9)
  store i32 %16, ptr %10, align 4
  %17 = load i32, ptr %10, align 4
  %18 = icmp ne i32 %17, 0
  br i1 %18, label %19, label %21

19:                                               ; preds = %3
  %20 = load i32, ptr %10, align 4
  store i32 %20, ptr %4, align 4
  store i32 1, ptr %11, align 4
  br label %41

21:                                               ; preds = %3
  %22 = load i64, ptr %8, align 8
  %23 = icmp ne i64 %22, 0
  br i1 %23, label %24, label %32

24:                                               ; preds = %21
  %25 = load i64, ptr %9, align 8
  %26 = icmp ne i64 %25, 0
  br i1 %26, label %27, label %29

27:                                               ; preds = %24
  %28 = load ptr, ptr %7, align 8
  store i32 0, ptr %28, align 4
  br label %31

29:                                               ; preds = %24
  %30 = load ptr, ptr %7, align 8
  store i32 1, ptr %30, align 4
  br label %31

31:                                               ; preds = %29, %27
  br label %40

32:                                               ; preds = %21
  %33 = load i64, ptr %9, align 8
  %34 = icmp ne i64 %33, 0
  br i1 %34, label %35, label %37

35:                                               ; preds = %32
  %36 = load ptr, ptr %7, align 8
  store i32 -1, ptr %36, align 4
  br label %39

37:                                               ; preds = %32
  %38 = load ptr, ptr %7, align 8
  store i32 0, ptr %38, align 4
  br label %39

39:                                               ; preds = %37, %35
  br label %40

40:                                               ; preds = %39, %31
  store i32 0, ptr %4, align 4
  store i32 1, ptr %11, align 4
  br label %41

41:                                               ; preds = %40, %19
  call void @llvm.lifetime.end.p0(i64 4, ptr %10) #10
  call void @llvm.lifetime.end.p0(i64 8, ptr %9) #10
  call void @llvm.lifetime.end.p0(i64 8, ptr %8) #10
  %42 = load i32, ptr %4, align 4
  ret i32 %42
}