; Function Attrs: null_pointer_is_valid sspstrong uwtable
define internal i32 @boolean_cmp_order(ptr noundef readonly captures(none) %0, ptr noundef %1, ptr noundef writeonly captures(none) %2) #0 {
  %4 = alloca i64, align 8
  call void @llvm.lifetime.start.p0(i64 8, ptr nonnull %4) #11
  %5 = getelementptr inbounds nuw i8, ptr %0, i64 8
  %6 = load i64, ptr %5, align 8
  %7 = call i32 @fvalue_to_uinteger64(ptr noundef %1, ptr noundef nonnull %4)
  %.not = icmp eq i32 %7, 0
  br i1 %.not, label %.sink.split, label %9

.sink.split:                                      ; preds = %3
  %.not10 = icmp eq i64 %6, 0
  %8 = load i64, ptr %4, align 8
  %.not11 = icmp eq i64 %8, 0
  %. = zext i1 %.not11 to i32
  %not..not11 = xor i1 %.not11, true
  %.13 = sext i1 %not..not11 to i32
  %.sink = select i1 %.not10, i32 %.13, i32 %.
  store i32 %.sink, ptr %2, align 4
  br label %9

9:                                                ; preds = %.sink.split, %3
  call void @llvm.lifetime.end.p0(i64 8, ptr nonnull %4) #11
  ret i32 %7
}